target datalayout = "e-m:e-p270:32:32-p271:32:32-p272:64:64-i64:64-i128:128-f80:128-n8:16:32:64-S128"
target triple = "x86_64-pc-linux-gnu"

%struct._zend_array = type { %struct._zend_refcounted_h, %union.anon.5, i32, %union.anon.7, i32, i32, i32, i32, i64, ptr }
%struct._zend_refcounted_h = type { i32, %union.anon.3 }
%union.anon.3 = type { i32 }
%union.anon.5 = type { i32 }
%union.anon.7 = type { ptr }
%struct._zend_class_entry = type { i8, ptr, %union.anon.4, i32, i32, i32, i32, ptr, ptr, ptr, %struct._zend_array, %struct._zend_array, %struct._zend_array, ptr, ptr, ptr, ptr, ptr, ptr, ptr, ptr, ptr, ptr, ptr, ptr, ptr, ptr, ptr, ptr, ptr, ptr, ptr, %union.anon.8, ptr, ptr, ptr, ptr, i32, i32, i32, i32, %union.anon.9, ptr, ptr, ptr, ptr, i32, ptr, ptr, %union.anon.10 }
%union.anon.4 = type { ptr }
%union.anon.8 = type { ptr }
%union.anon.9 = type { ptr }
%union.anon.10 = type { %struct.anon.11 }
%struct.anon.11 = type { ptr, i32, i32 }

; Function Attrs: nounwind uwtable
define dso_local zeroext i1 @instanceof_function_slow(ptr noundef %0, ptr noundef %1) #0 {
  %3 = alloca i1, align 1
  %4 = alloca ptr, align 8
  %5 = alloca ptr, align 8
  %6 = alloca i32, align 4
  %7 = alloca i32, align 4
  store ptr %0, ptr %4, align 8, !tbaa !89
  store ptr %1, ptr %5, align 8, !tbaa !89
  %8 = load ptr, ptr %4, align 8, !tbaa !89
  %9 = load ptr, ptr %5, align 8, !tbaa !89
  %10 = icmp ne ptr %8, %9
  br i1 %10, label %11, label %12

11:                                               ; preds = %2
  br label %12

12:                                               ; preds = %11, %2
  %13 = phi i1 [ false, %2 ], [ true, %11 ]
  call void @llvm.assume(i1 %13)
  %14 = load ptr, ptr %5, align 8, !tbaa !89
  %15 = getelementptr inbounds nuw %struct._zend_class_entry, ptr %14, i32 0, i32 4
  %16 = load i32, ptr %15, align 4, !tbaa !117
  %17 = and i32 %16, 1
  %18 = icmp ne i32 %17, 0
  br i1 %18, label %19, label %54

19:                                               ; preds = %12
  call void @llvm.lifetime.start.p0(i64 4, ptr %6) #20
  %20 = load ptr, ptr %4, align 8, !tbaa !89
  %21 = getelementptr inbounds nuw %struct._zend_class_entry, ptr %20, i32 0, i32 37
  %22 = load i32, ptr %21, align 8, !tbaa !118
  %23 = icmp ne i32 %22, 0
  br i1 %23, label %24, label %52

24:                                               ; preds = %19
  %25 = load ptr, ptr %4, align 8, !tbaa !89
  %26 = getelementptr inbounds nuw %struct._zend_class_entry, ptr %25, i32 0, i32 4
  %27 = load i32, ptr %26, align 4, !tbaa !117
  %28 = and i32 %27, 262144
  %29 = icmp ne i32 %28, 0
  call void @llvm.assume(i1 %29)
  store i32 0, ptr %6, align 4, !tbaa !44
  br label %30

30:                                               ; preds = %48, %24
  %31 = load i32, ptr %6, align 4, !tbaa !44
  %32 = load ptr, ptr %4, align 8, !tbaa !89
  %33 = getelementptr inbounds nuw %struct._zend_class_entry, ptr %32, i32 0, i32 37
  %34 = load i32, ptr %33, align 8, !tbaa !118
  %35 = icmp ult i32 %31, %34
  br i1 %35, label %36, label %51

36:                                               ; preds = %30
  %37 = load ptr, ptr %4, align 8, !tbaa !89
  %38 = getelementptr inbounds nuw %struct._zend_class_entry, ptr %37, i32 0, i32 41
  %39 = load ptr, ptr %38, align 8, !tbaa !11
  %40 = load i32, ptr %6, align 4, !tbaa !44
  %41 = zext i32 %40 to i64
  %42 = getelementptr inbounds nuw ptr, ptr %39, i64 %41
  %43 = load ptr, ptr %42, align 8, !tbaa !89
  %44 = load ptr, ptr %5, align 8, !tbaa !89
  %45 = icmp eq ptr %43, %44
  br i1 %45, label %46, label %47

46:                                               ; preds = %36
  store i1 true, ptr %3, align 1
  store i32 1, ptr %7, align 4
  br label %53

47:                                               ; preds = %36
  br label %48

48:                                               ; preds = %47
  %49 = load i32, ptr %6, align 4, !tbaa !44
  %50 = add i32 %49, 1
  store i32 %50, ptr %6, align 4, !tbaa !44
  br label %30

51:                                               ; preds = %30
  br label %52

52:                                               ; preds = %51, %19
  store i1 false, ptr %3, align 1
  store i32 1, ptr %7, align 4
  br label %53

53:                                               ; preds = %52, %46
  call void @llvm.lifetime.end.p0(i64 4, ptr %6) #20
  br label %68

54:                                               ; preds = %12
  br label %55

55:                                               ; preds = %54, %67
  %56 = load ptr, ptr %4, align 8, !tbaa !89
  %57 = getelementptr inbounds nuw %struct._zend_class_entry, ptr %56, i32 0, i32 2
  %58 = load ptr, ptr %57, align 8, !tbaa !11
  store ptr %58, ptr %4, align 8, !tbaa !89
  %59 = load ptr, ptr %4, align 8, !tbaa !89
  %60 = load ptr, ptr %5, align 8, !tbaa !89
  %61 = icmp eq ptr %59, %60
  br i1 %61, label %62, label %63

62:                                               ; preds = %55
  store i1 true, ptr %3, align 1
  br label %68

63:                                               ; preds = %55
  %64 = load ptr, ptr %4, align 8, !tbaa !89
  %65 = icmp eq ptr %64, null
  br i1 %65, label %66, label %67

66:                                               ; preds = %63
  store i1 false, ptr %3, align 1
  br label %68

67:                                               ; preds = %63
  br label %55

68:                                               ; preds = %66, %62, %53
  %69 = load i1, ptr %3, align 1
  ret i1 %69
}