; Function Attrs: nofree norecurse nosync nounwind memory(read, inaccessiblemem: write) uwtable
define dso_local noundef zeroext i1 @instanceof_function_slow(ptr noundef readonly captures(address) %0, ptr noundef readonly captures(address) %1) local_unnamed_addr #12 {
  %3 = icmp ne ptr %0, %1
  tail call void @llvm.assume(i1 %3)
  %4 = getelementptr inbounds nuw i8, ptr %1, i64 28
  %5 = load i32, ptr %4, align 4, !tbaa !124
  %6 = and i32 %5, 1
  %.not = icmp eq i32 %6, 0
  br i1 %.not, label %.preheader, label %7

7:                                                ; preds = %2
  %8 = getelementptr inbounds nuw i8, ptr %0, i64 424
  %9 = load i32, ptr %8, align 8, !tbaa !125
  %.not18 = icmp eq i32 %9, 0
  br i1 %.not18, label %.loopexit, label %10

10:                                               ; preds = %7
  %11 = getelementptr inbounds nuw i8, ptr %0, i64 28
  %12 = load i32, ptr %11, align 4, !tbaa !124
  %13 = and i32 %12, 262144
  %14 = icmp ne i32 %13, 0
  tail call void @llvm.assume(i1 %14)
  %15 = getelementptr inbounds nuw i8, ptr %0, i64 440
  %16 = load ptr, ptr %15, align 8, !tbaa !4
  %wide.trip.count = zext i32 %9 to i64
  br label %17

17:                                               ; preds = %17, %10
  %indvars.iv = phi i64 [ 0, %10 ], [ %indvars.iv.next, %17 ]
  %18 = getelementptr inbounds nuw ptr, ptr %16, i64 %indvars.iv
  %19 = load ptr, ptr %18, align 8, !tbaa !80
  %20 = icmp eq ptr %19, %1
  %indvars.iv.next = add nuw nsw i64 %indvars.iv, 1
  %exitcond.not = icmp eq i64 %indvars.iv.next, %wide.trip.count
  %or.cond = select i1 %20, i1 true, i1 %exitcond.not
  br i1 %or.cond, label %.loopexit, label %17

.preheader:                                       ; preds = %2, %.preheader
  %.016 = phi ptr [ %22, %.preheader ], [ %0, %2 ]
  %21 = getelementptr inbounds nuw i8, ptr %.016, i64 16
  %22 = load ptr, ptr %21, align 8, !tbaa !4
  %23 = icmp eq ptr %22, %1
  %24 = icmp eq ptr %22, null
  %or.cond29 = or i1 %23, %24
  br i1 %or.cond29, label %.loopexit, label %.preheader

.loopexit:                                        ; preds = %17, %.preheader, %7
  %.1 = phi i1 [ false, %7 ], [ %23, %.preheader ], [ %20, %17 ]
  ret i1 %.1
}